#include <math.h>
#include <stdio.h>
#include <stdlib.h>
#include <string.h>
#include <iostream>
using namespace std;

void echo(int n);
int main()
{
    int i,a[10];
	for(i=0;i<6;i++)
	{
        cin>>a[i];
		while(a[i]%10==0)a[i]=a[i]/10;
		if(a[i]>=0)
		echo(a[i]);
		if(a[i]<0)
		{
		cout<<"-";
        echo(-a[i]);
		}
	cout<<endl;
    }

	return 0;
}
void echo(int n)
{
    cout<<n%10;
    n=n/10;
    if(n>0)
    echo(n);

}